target datalayout = "e-m:e-p270:32:32-p271:32:32-p272:64:64-i64:64-i128:128-f80:128-n8:16:32:64-S128"
target triple = "x86_64-pc-linux-gnu"

%struct.bz_stream = type { ptr, i32, i32, i32, ptr, i32, i32, i32, ptr, ptr, ptr, ptr }
%struct.EState = type { ptr, i32, i32, i32, ptr, ptr, ptr, i32, ptr, ptr, ptr, ptr, i32, i32, i32, i32, i32, i32, i32, i32, i32, i32, [256 x i8], [256 x i8], i32, i32, i32, i32, i32, i32, i32, i32, [258 x i32], [18002 x i8], [18002 x i8], [6 x [258 x i8]], [6 x [258 x i32]], [6 x [258 x i32]], [258 x [4 x i32]] }

; Function Attrs: nounwind uwtable
define internal void @prepare_new_block(ptr noundef %0) #0 {
  %2 = alloca ptr, align 8
  %3 = alloca i32, align 4
  store ptr %0, ptr %2, align 8
  %4 = load ptr, ptr %2, align 8
  %5 = getelementptr inbounds %struct.EState, ptr %4, i32 0, i32 17
  store i32 0, ptr %5, align 4
  %6 = load ptr, ptr %2, align 8
  %7 = getelementptr inbounds %struct.EState, ptr %6, i32 0, i32 19
  store i32 0, ptr %7, align 4
  %8 = load ptr, ptr %2, align 8
  %9 = getelementptr inbounds %struct.EState, ptr %8, i32 0, i32 20
  store i32 0, ptr %9, align 8
  %10 = load ptr, ptr %2, align 8
  %11 = getelementptr inbounds %struct.EState, ptr %10, i32 0, i32 26
  store i32 -1, ptr %11, align 8
  store i32 0, ptr %3, align 4
  br label %12

12:                                               ; preds = %21, %1
  %13 = load i32, ptr %3, align 4
  %14 = icmp slt i32 %13, 256
  br i1 %14, label %15, label %24

15:                                               ; preds = %12
  %16 = load ptr, ptr %2, align 8
  %17 = getelementptr inbounds %struct.EState, ptr %16, i32 0, i32 22
  %18 = load i32, ptr %3, align 4
  %19 = sext i32 %18 to i64
  %20 = getelementptr inbounds [256 x i8], ptr %17, i64 0, i64 %19
  store i8 0, ptr %20, align 1
  br label %21

21:                                               ; preds = %15
  %22 = load i32, ptr %3, align 4
  %23 = add nsw i32 %22, 1
  store i32 %23, ptr %3, align 4
  br label %12, !llvm.loop !4

24:                                               ; preds = %12
  %25 = load ptr, ptr %2, align 8
  %26 = getelementptr inbounds %struct.EState, ptr %25, i32 0, i32 29
  %27 = load i32, ptr %26, align 4
  %28 = add nsw i32 %27, 1
  store i32 %28, ptr %26, align 4
  ret void
}

; Function Attrs: nounwind uwtable
define internal void @init_RL(ptr noundef %0) #0 {
  %2 = alloca ptr, align 8
  store ptr %0, ptr %2, align 8
  %3 = load ptr, ptr %2, align 8
  %4 = getelementptr inbounds %struct.EState, ptr %3, i32 0, i32 13
  store i32 256, ptr %4, align 4
  %5 = load ptr, ptr %2, align 8
  %6 = getelementptr inbounds %struct.EState, ptr %5, i32 0, i32 14
  store i32 0, ptr %6, align 8
  ret void
}

; Function Attrs: nounwind uwtable
define internal i32 @bz_config_ok() #0 {
  ret i32 1
}

; Function Attrs: nounwind uwtable
define i32 @BZ2_bzCompressInit(ptr noundef %0, i32 noundef %1, i32 noundef %2, i32 noundef %3) #0 {
  %5 = alloca i32, align 4
  %6 = alloca ptr, align 8
  %7 = alloca i32, align 4
  %8 = alloca i32, align 4
  %9 = alloca i32, align 4
  %10 = alloca i32, align 4
  %11 = alloca ptr, align 8
  store ptr %0, ptr %6, align 8
  store i32 %1, ptr %7, align 4
  store i32 %2, ptr %8, align 4
  store i32 %3, ptr %9, align 4
  %12 = call i32 @bz_config_ok()
  %13 = icmp ne i32 %12, 0
  br i1 %13, label %15, label %14

14:                                               ; preds = %4
  store i32 -9, ptr %5, align 4
  br label %234

15:                                               ; preds = %4
  %16 = load ptr, ptr %6, align 8
  %17 = icmp eq ptr %16, null
  br i1 %17, label %30, label %18

18:                                               ; preds = %15
  %19 = load i32, ptr %7, align 4
  %20 = icmp slt i32 %19, 1
  br i1 %20, label %30, label %21

21:                                               ; preds = %18
  %22 = load i32, ptr %7, align 4
  %23 = icmp sgt i32 %22, 9
  br i1 %23, label %30, label %24

24:                                               ; preds = %21
  %25 = load i32, ptr %9, align 4
  %26 = icmp slt i32 %25, 0
  br i1 %26, label %30, label %27

27:                                               ; preds = %24
  %28 = load i32, ptr %9, align 4
  %29 = icmp sgt i32 %28, 250
  br i1 %29, label %30, label %31

30:                                               ; preds = %27, %24, %21, %18, %15
  store i32 -2, ptr %5, align 4
  br label %234

31:                                               ; preds = %27
  %32 = load i32, ptr %9, align 4
  %33 = icmp eq i32 %32, 0
  br i1 %33, label %34, label %35

34:                                               ; preds = %31
  store i32 30, ptr %9, align 4
  br label %35

35:                                               ; preds = %34, %31
  %36 = load ptr, ptr %6, align 8
  %37 = getelementptr inbounds %struct.bz_stream, ptr %36, i32 0, i32 9
  %38 = load ptr, ptr %37, align 8
  %39 = icmp eq ptr %38, null
  br i1 %39, label %40, label %43

40:                                               ; preds = %35
  %41 = load ptr, ptr %6, align 8
  %42 = getelementptr inbounds %struct.bz_stream, ptr %41, i32 0, i32 9
  store ptr @default_bzalloc, ptr %42, align 8
  br label %43

43:                                               ; preds = %40, %35
  %44 = load ptr, ptr %6, align 8
  %45 = getelementptr inbounds %struct.bz_stream, ptr %44, i32 0, i32 10
  %46 = load ptr, ptr %45, align 8
  %47 = icmp eq ptr %46, null
  br i1 %47, label %48, label %51

48:                                               ; preds = %43
  %49 = load ptr, ptr %6, align 8
  %50 = getelementptr inbounds %struct.bz_stream, ptr %49, i32 0, i32 10
  store ptr @default_bzfree, ptr %50, align 8
  br label %51

51:                                               ; preds = %48, %43
  %52 = load ptr, ptr %6, align 8
  %53 = getelementptr inbounds %struct.bz_stream, ptr %52, i32 0, i32 9
  %54 = load ptr, ptr %53, align 8
  %55 = load ptr, ptr %6, align 8
  %56 = getelementptr inbounds %struct.bz_stream, ptr %55, i32 0, i32 11
  %57 = load ptr, ptr %56, align 8
  %58 = call ptr %54(ptr noundef %57, i32 noundef 55768, i32 noundef 1)
  store ptr %58, ptr %11, align 8
  %59 = load ptr, ptr %11, align 8
  %60 = icmp eq ptr %59, null
  br i1 %60, label %61, label %62

61:                                               ; preds = %51
  store i32 -3, ptr %5, align 4
  br label %234

62:                                               ; preds = %51
  %63 = load ptr, ptr %6, align 8
  %64 = load ptr, ptr %11, align 8
  %65 = getelementptr inbounds %struct.EState, ptr %64, i32 0, i32 0
  store ptr %63, ptr %65, align 8
  %66 = load ptr, ptr %11, align 8
  %67 = getelementptr inbounds %struct.EState, ptr %66, i32 0, i32 4
  store ptr null, ptr %67, align 8
  %68 = load ptr, ptr %11, align 8
  %69 = getelementptr inbounds %struct.EState, ptr %68, i32 0, i32 5
  store ptr null, ptr %69, align 8
  %70 = load ptr, ptr %11, align 8
  %71 = getelementptr inbounds %struct.EState, ptr %70, i32 0, i32 6
  store ptr null, ptr %71, align 8
  %72 = load i32, ptr %7, align 4
  %73 = mul nsw i32 100000, %72
  store i32 %73, ptr %10, align 4
  %74 = load ptr, ptr %6, align 8
  %75 = getelementptr inbounds %struct.bz_stream, ptr %74, i32 0, i32 9
  %76 = load ptr, ptr %75, align 8
  %77 = load ptr, ptr %6, align 8
  %78 = getelementptr inbounds %struct.bz_stream, ptr %77, i32 0, i32 11
  %79 = load ptr, ptr %78, align 8
  %80 = load i32, ptr %10, align 4
  %81 = sext i32 %80 to i64
  %82 = mul i64 %81, 4
  %83 = trunc i64 %82 to i32
  %84 = call ptr %76(ptr noundef %79, i32 noundef %83, i32 noundef 1)
  %85 = load ptr, ptr %11, align 8
  %86 = getelementptr inbounds %struct.EState, ptr %85, i32 0, i32 4
  store ptr %84, ptr %86, align 8
  %87 = load ptr, ptr %6, align 8
  %88 = getelementptr inbounds %struct.bz_stream, ptr %87, i32 0, i32 9
  %89 = load ptr, ptr %88, align 8
  %90 = load ptr, ptr %6, align 8
  %91 = getelementptr inbounds %struct.bz_stream, ptr %90, i32 0, i32 11
  %92 = load ptr, ptr %91, align 8
  %93 = load i32, ptr %10, align 4
  %94 = add nsw i32 %93, 34
  %95 = sext i32 %94 to i64
  %96 = mul i64 %95, 4
  %97 = trunc i64 %96 to i32
  %98 = call ptr %89(ptr noundef %92, i32 noundef %97, i32 noundef 1)
  %99 = load ptr, ptr %11, align 8
  %100 = getelementptr inbounds %struct.EState, ptr %99, i32 0, i32 5
  store ptr %98, ptr %100, align 8
  %101 = load ptr, ptr %6, align 8
  %102 = getelementptr inbounds %struct.bz_stream, ptr %101, i32 0, i32 9
  %103 = load ptr, ptr %102, align 8
  %104 = load ptr, ptr %6, align 8
  %105 = getelementptr inbounds %struct.bz_stream, ptr %104, i32 0, i32 11
  %106 = load ptr, ptr %105, align 8
  %107 = call ptr %103(ptr noundef %106, i32 noundef 262148, i32 noundef 1)
  %108 = load ptr, ptr %11, align 8
  %109 = getelementptr inbounds %struct.EState, ptr %108, i32 0, i32 6
  store ptr %107, ptr %109, align 8
  %110 = load ptr, ptr %11, align 8
  %111 = getelementptr inbounds %struct.EState, ptr %110, i32 0, i32 4
  %112 = load ptr, ptr %111, align 8
  %113 = icmp eq ptr %112, null
  br i1 %113, label %124, label %114

114:                                              ; preds = %62
  %115 = load ptr, ptr %11, align 8
  %116 = getelementptr inbounds %struct.EState, ptr %115, i32 0, i32 5
  %117 = load ptr, ptr %116, align 8
  %118 = icmp eq ptr %117, null
  br i1 %118, label %124, label %119

119:                                              ; preds = %114
  %120 = load ptr, ptr %11, align 8
  %121 = getelementptr inbounds %struct.EState, ptr %120, i32 0, i32 6
  %122 = load ptr, ptr %121, align 8
  %123 = icmp eq ptr %122, null
  br i1 %123, label %124, label %181

124:                                              ; preds = %119, %114, %62
  %125 = load ptr, ptr %11, align 8
  %126 = getelementptr inbounds %struct.EState, ptr %125, i32 0, i32 4
  %127 = load ptr, ptr %126, align 8
  %128 = icmp ne ptr %127, null
  br i1 %128, label %129, label %139

129:                                              ; preds = %124
  %130 = load ptr, ptr %6, align 8
  %131 = getelementptr inbounds %struct.bz_stream, ptr %130, i32 0, i32 10
  %132 = load ptr, ptr %131, align 8
  %133 = load ptr, ptr %6, align 8
  %134 = getelementptr inbounds %struct.bz_stream, ptr %133, i32 0, i32 11
  %135 = load ptr, ptr %134, align 8
  %136 = load ptr, ptr %11, align 8
  %137 = getelementptr inbounds %struct.EState, ptr %136, i32 0, i32 4
  %138 = load ptr, ptr %137, align 8
  call void %132(ptr noundef %135, ptr noundef %138)
  br label %139

139:                                              ; preds = %129, %124
  %140 = load ptr, ptr %11, align 8
  %141 = getelementptr inbounds %struct.EState, ptr %140, i32 0, i32 5
  %142 = load ptr, ptr %141, align 8
  %143 = icmp ne ptr %142, null
  br i1 %143, label %144, label %154

144:                                              ; preds = %139
  %145 = load ptr, ptr %6, align 8
  %146 = getelementptr inbounds %struct.bz_stream, ptr %145, i32 0, i32 10
  %147 = load ptr, ptr %146, align 8
  %148 = load ptr, ptr %6, align 8
  %149 = getelementptr inbounds %struct.bz_stream, ptr %148, i32 0, i32 11
  %150 = load ptr, ptr %149, align 8
  %151 = load ptr, ptr %11, align 8
  %152 = getelementptr inbounds %struct.EState, ptr %151, i32 0, i32 5
  %153 = load ptr, ptr %152, align 8
  call void %147(ptr noundef %150, ptr noundef %153)
  br label %154

154:                                              ; preds = %144, %139
  %155 = load ptr, ptr %11, align 8
  %156 = getelementptr inbounds %struct.EState, ptr %155, i32 0, i32 6
  %157 = load ptr, ptr %156, align 8
  %158 = icmp ne ptr %157, null
  br i1 %158, label %159, label %169

159:                                              ; preds = %154
  %160 = load ptr, ptr %6, align 8
  %161 = getelementptr inbounds %struct.bz_stream, ptr %160, i32 0, i32 10
  %162 = load ptr, ptr %161, align 8
  %163 = load ptr, ptr %6, align 8
  %164 = getelementptr inbounds %struct.bz_stream, ptr %163, i32 0, i32 11
  %165 = load ptr, ptr %164, align 8
  %166 = load ptr, ptr %11, align 8
  %167 = getelementptr inbounds %struct.EState, ptr %166, i32 0, i32 6
  %168 = load ptr, ptr %167, align 8
  call void %162(ptr noundef %165, ptr noundef %168)
  br label %169

169:                                              ; preds = %159, %154
  %170 = load ptr, ptr %11, align 8
  %171 = icmp ne ptr %170, null
  br i1 %171, label %172, label %180

172:                                              ; preds = %169
  %173 = load ptr, ptr %6, align 8
  %174 = getelementptr inbounds %struct.bz_stream, ptr %173, i32 0, i32 10
  %175 = load ptr, ptr %174, align 8
  %176 = load ptr, ptr %6, align 8
  %177 = getelementptr inbounds %struct.bz_stream, ptr %176, i32 0, i32 11
  %178 = load ptr, ptr %177, align 8
  %179 = load ptr, ptr %11, align 8
  call void %175(ptr noundef %178, ptr noundef %179)
  br label %180

180:                                              ; preds = %172, %169
  store i32 -3, ptr %5, align 4
  br label %234

181:                                              ; preds = %119
  %182 = load ptr, ptr %11, align 8
  %183 = getelementptr inbounds %struct.EState, ptr %182, i32 0, i32 29
  store i32 0, ptr %183, align 4
  %184 = load ptr, ptr %11, align 8
  %185 = getelementptr inbounds %struct.EState, ptr %184, i32 0, i32 2
  store i32 2, ptr %185, align 4
  %186 = load ptr, ptr %11, align 8
  %187 = getelementptr inbounds %struct.EState, ptr %186, i32 0, i32 1
  store i32 2, ptr %187, align 8
  %188 = load ptr, ptr %11, align 8
  %189 = getelementptr inbounds %struct.EState, ptr %188, i32 0, i32 27
  store i32 0, ptr %189, align 4
  %190 = load i32, ptr %7, align 4
  %191 = load ptr, ptr %11, align 8
  %192 = getelementptr inbounds %struct.EState, ptr %191, i32 0, i32 30
  store i32 %190, ptr %192, align 8
  %193 = load i32, ptr %7, align 4
  %194 = mul nsw i32 100000, %193
  %195 = sub nsw i32 %194, 19
  %196 = load ptr, ptr %11, align 8
  %197 = getelementptr inbounds %struct.EState, ptr %196, i32 0, i32 18
  store i32 %195, ptr %197, align 8
  %198 = load i32, ptr %8, align 4
  %199 = load ptr, ptr %11, align 8
  %200 = getelementptr inbounds %struct.EState, ptr %199, i32 0, i32 28
  store i32 %198, ptr %200, align 8
  %201 = load i32, ptr %9, align 4
  %202 = load ptr, ptr %11, align 8
  %203 = getelementptr inbounds %struct.EState, ptr %202, i32 0, i32 12
  store i32 %201, ptr %203, align 8
  %204 = load ptr, ptr %11, align 8
  %205 = getelementptr inbounds %struct.EState, ptr %204, i32 0, i32 5
  %206 = load ptr, ptr %205, align 8
  %207 = load ptr, ptr %11, align 8
  %208 = getelementptr inbounds %struct.EState, ptr %207, i32 0, i32 9
  store ptr %206, ptr %208, align 8
  %209 = load ptr, ptr %11, align 8
  %210 = getelementptr inbounds %struct.EState, ptr %209, i32 0, i32 4
  %211 = load ptr, ptr %210, align 8
  %212 = load ptr, ptr %11, align 8
  %213 = getelementptr inbounds %struct.EState, ptr %212, i32 0, i32 10
  store ptr %211, ptr %213, align 8
  %214 = load ptr, ptr %11, align 8
  %215 = getelementptr inbounds %struct.EState, ptr %214, i32 0, i32 11
  store ptr null, ptr %215, align 8
  %216 = load ptr, ptr %11, align 8
  %217 = getelementptr inbounds %struct.EState, ptr %216, i32 0, i32 4
  %218 = load ptr, ptr %217, align 8
  %219 = load ptr, ptr %11, align 8
  %220 = getelementptr inbounds %struct.EState, ptr %219, i32 0, i32 8
  store ptr %218, ptr %220, align 8
  %221 = load ptr, ptr %11, align 8
  %222 = load ptr, ptr %6, align 8
  %223 = getelementptr inbounds %struct.bz_stream, ptr %222, i32 0, i32 8
  store ptr %221, ptr %223, align 8
  %224 = load ptr, ptr %6, align 8
  %225 = getelementptr inbounds %struct.bz_stream, ptr %224, i32 0, i32 2
  store i32 0, ptr %225, align 4
  %226 = load ptr, ptr %6, align 8
  %227 = getelementptr inbounds %struct.bz_stream, ptr %226, i32 0, i32 3
  store i32 0, ptr %227, align 8
  %228 = load ptr, ptr %6, align 8
  %229 = getelementptr inbounds %struct.bz_stream, ptr %228, i32 0, i32 6
  store i32 0, ptr %229, align 4
  %230 = load ptr, ptr %6, align 8
  %231 = getelementptr inbounds %struct.bz_stream, ptr %230, i32 0, i32 7
  store i32 0, ptr %231, align 8
  %232 = load ptr, ptr %11, align 8
  call void @init_RL(ptr noundef %232)
  %233 = load ptr, ptr %11, align 8
  call void @prepare_new_block(ptr noundef %233)
  store i32 0, ptr %5, align 4
  br label %234

234:                                              ; preds = %181, %180, %61, %30, %14
  %235 = load i32, ptr %5, align 4
  ret i32 %235
}