; Function Attrs: nounwind uwtable
define range(i32 -3, 1) i32 @BZ2_bzCompressInit(ptr noundef %0, i32 noundef %1, i32 noundef %2, i32 noundef %3) local_unnamed_addr #4 {
  %5 = icmp eq ptr %0, null
  %6 = add i32 %1, -10
  %7 = icmp ult i32 %6, -9
  %or.cond3 = or i1 %5, %7
  %8 = icmp ugt i32 %3, 250
  %or.cond7 = or i1 %or.cond3, %8
  br i1 %or.cond7, label %91, label %9

9:                                                ; preds = %4
  %10 = icmp eq i32 %3, 0
  %spec.store.select = select i1 %10, i32 30, i32 %3
  %11 = getelementptr inbounds nuw i8, ptr %0, i64 56
  %12 = load ptr, ptr %11, align 8
  %13 = icmp eq ptr %12, null
  br i1 %13, label %14, label %15

14:                                               ; preds = %9
  store ptr @default_bzalloc, ptr %11, align 8
  br label %15

15:                                               ; preds = %14, %9
  %16 = phi ptr [ @default_bzalloc, %14 ], [ %12, %9 ]
  %17 = getelementptr inbounds nuw i8, ptr %0, i64 64
  %18 = load ptr, ptr %17, align 8
  %19 = icmp eq ptr %18, null
  br i1 %19, label %20, label %21

20:                                               ; preds = %15
  store ptr @default_bzfree, ptr %17, align 8
  br label %21

21:                                               ; preds = %20, %15
  %22 = getelementptr inbounds nuw i8, ptr %0, i64 72
  %23 = load ptr, ptr %22, align 8
  %24 = tail call ptr %16(ptr noundef %23, i32 noundef 55768, i32 noundef 1) #22
  %25 = icmp eq ptr %24, null
  br i1 %25, label %91, label %26

26:                                               ; preds = %21
  store ptr %0, ptr %24, align 8
  %27 = getelementptr inbounds nuw i8, ptr %24, i64 24
  %28 = getelementptr inbounds nuw i8, ptr %24, i64 32
  %29 = getelementptr inbounds nuw i8, ptr %24, i64 40
  %30 = mul nuw nsw i32 %1, 100000
  tail call void @llvm.memset.p0.i64(ptr noundef nonnull align 8 dereferenceable(24) %27, i8 0, i64 24, i1 false)
  %31 = load ptr, ptr %11, align 8
  %32 = load ptr, ptr %22, align 8
  %33 = mul nuw nsw i32 %1, 400000
  %34 = tail call ptr %31(ptr noundef %32, i32 noundef %33, i32 noundef 1) #22
  store ptr %34, ptr %27, align 8
  %35 = load ptr, ptr %11, align 8
  %36 = load ptr, ptr %22, align 8
  %37 = add nuw nsw i32 %33, 136
  %38 = tail call ptr %35(ptr noundef %36, i32 noundef %37, i32 noundef 1) #22
  store ptr %38, ptr %28, align 8
  %39 = load ptr, ptr %11, align 8
  %40 = load ptr, ptr %22, align 8
  %41 = tail call ptr %39(ptr noundef %40, i32 noundef 262148, i32 noundef 1) #22
  store ptr %41, ptr %29, align 8
  %42 = load ptr, ptr %27, align 8
  %43 = icmp eq ptr %42, null
  br i1 %43, label %.thread, label %44

44:                                               ; preds = %26
  %45 = load ptr, ptr %28, align 8
  %46 = icmp eq ptr %45, null
  %47 = icmp eq ptr %41, null
  %or.cond = select i1 %46, i1 true, i1 %47
  br i1 %or.cond, label %48, label %63

48:                                               ; preds = %44
  %49 = load ptr, ptr %17, align 8
  %50 = load ptr, ptr %22, align 8
  tail call void %49(ptr noundef %50, ptr noundef nonnull %42) #22
  br label %.thread

.thread:                                          ; preds = %26, %48
  %51 = load ptr, ptr %28, align 8
  %.not90 = icmp eq ptr %51, null
  br i1 %.not90, label %55, label %52

52:                                               ; preds = %.thread
  %53 = load ptr, ptr %17, align 8
  %54 = load ptr, ptr %22, align 8
  tail call void %53(ptr noundef %54, ptr noundef nonnull %51) #22
  br label %55

55:                                               ; preds = %52, %.thread
  %56 = load ptr, ptr %29, align 8
  %.not91 = icmp eq ptr %56, null
  br i1 %.not91, label %60, label %57

57:                                               ; preds = %55
  %58 = load ptr, ptr %17, align 8
  %59 = load ptr, ptr %22, align 8
  tail call void %58(ptr noundef %59, ptr noundef nonnull %56) #22
  br label %60

60:                                               ; preds = %55, %57
  %61 = load ptr, ptr %17, align 8
  %62 = load ptr, ptr %22, align 8
  tail call void %61(ptr noundef %62, ptr noundef nonnull %24) #22
  br label %91

63:                                               ; preds = %44
  %64 = getelementptr inbounds nuw i8, ptr %24, i64 660
  store i32 0, ptr %64, align 4
  %65 = getelementptr inbounds nuw i8, ptr %24, i64 12
  store i32 2, ptr %65, align 4
  %66 = getelementptr inbounds nuw i8, ptr %24, i64 8
  store i32 2, ptr %66, align 8
  %67 = getelementptr inbounds nuw i8, ptr %24, i64 652
  store i32 0, ptr %67, align 4
  %68 = getelementptr inbounds nuw i8, ptr %24, i64 664
  store i32 %1, ptr %68, align 8
  %69 = add nsw i32 %30, -19
  %70 = getelementptr inbounds nuw i8, ptr %24, i64 112
  store i32 %69, ptr %70, align 8
  %71 = getelementptr inbounds nuw i8, ptr %24, i64 656
  store i32 %2, ptr %71, align 8
  %72 = getelementptr inbounds nuw i8, ptr %24, i64 88
  store i32 %spec.store.select, ptr %72, align 8
  %73 = getelementptr inbounds nuw i8, ptr %24, i64 64
  store ptr %45, ptr %73, align 8
  %74 = getelementptr inbounds nuw i8, ptr %24, i64 72
  store ptr %42, ptr %74, align 8
  %75 = getelementptr inbounds nuw i8, ptr %24, i64 80
  store ptr null, ptr %75, align 8
  %76 = getelementptr inbounds nuw i8, ptr %24, i64 56
  store ptr %42, ptr %76, align 8
  %77 = getelementptr inbounds nuw i8, ptr %0, i64 48
  store ptr %24, ptr %77, align 8
  %78 = getelementptr inbounds nuw i8, ptr %0, i64 12
  store i32 0, ptr %78, align 4
  %79 = getelementptr inbounds nuw i8, ptr %0, i64 16
  store i32 0, ptr %79, align 8
  %80 = getelementptr inbounds nuw i8, ptr %0, i64 36
  store i32 0, ptr %80, align 4
  %81 = getelementptr inbounds nuw i8, ptr %0, i64 40
  store i32 0, ptr %81, align 8
  %82 = getelementptr inbounds nuw i8, ptr %24, i64 92
  store i32 256, ptr %82, align 4
  %83 = getelementptr inbounds nuw i8, ptr %24, i64 96
  store i32 0, ptr %83, align 8
  %84 = getelementptr inbounds nuw i8, ptr %24, i64 108
  store i32 0, ptr %84, align 4
  %85 = getelementptr inbounds nuw i8, ptr %24, i64 116
  store i32 0, ptr %85, align 4
  %86 = getelementptr inbounds nuw i8, ptr %24, i64 120
  store i32 0, ptr %86, align 8
  %87 = getelementptr inbounds nuw i8, ptr %24, i64 648
  store i32 -1, ptr %87, align 8
  %88 = getelementptr inbounds nuw i8, ptr %24, i64 128
  tail call void @llvm.memset.p0.i64(ptr noundef nonnull align 1 dereferenceable(256) %88, i8 0, i64 256, i1 false)
  %89 = load i32, ptr %64, align 4
  %90 = add nsw i32 %89, 1
  store i32 %90, ptr %64, align 4
  br label %91

91:                                               ; preds = %21, %4, %63, %60
  %.0 = phi i32 [ -3, %60 ], [ 0, %63 ], [ -2, %4 ], [ -3, %21 ]
  ret i32 %.0
}